target datalayout = "e-m:e-p270:32:32-p271:32:32-p272:64:64-i64:64-i128:128-f80:128-n8:16:32:64-S128"
target triple = "x86_64-pc-linux-gnu"

%struct.ident_t = type { i32, i32, i32, i32, ptr }
%"class.ncnn::Bias" = type { %"class.ncnn::Layer", i32, %"class.ncnn::Mat" }
%"class.ncnn::Layer" = type { ptr, i8, i8, i8, i8, i8, i8, i8, i8, i8, i8, i8, i8, i8, i8, i8, i8, i8, i8, i8, i8, i32, ptr, i32, %"class.std::__cxx11::basic_string", %"class.std::__cxx11::basic_string", %"class.std::vector", %"class.std::vector", %"class.std::vector.3", %"class.std::vector.3" }
%"class.std::__cxx11::basic_string" = type { %"struct.std::__cxx11::basic_string<char>::_Alloc_hider", i64, %union.anon }
%"struct.std::__cxx11::basic_string<char>::_Alloc_hider" = type { ptr }
%union.anon = type { i64, [8 x i8] }
%"class.std::vector" = type { %"struct.std::_Vector_base" }
%"struct.std::_Vector_base" = type { %"struct.std::_Vector_base<int, std::allocator<int>>::_Vector_impl" }
%"struct.std::_Vector_base<int, std::allocator<int>>::_Vector_impl" = type { %"struct.std::_Vector_base<int, std::allocator<int>>::_Vector_impl_data" }
%"struct.std::_Vector_base<int, std::allocator<int>>::_Vector_impl_data" = type { ptr, ptr, ptr }
%"class.std::vector.3" = type { %"struct.std::_Vector_base.4" }
%"struct.std::_Vector_base.4" = type { %"struct.std::_Vector_base<ncnn::Mat, std::allocator<ncnn::Mat>>::_Vector_impl" }
%"struct.std::_Vector_base<ncnn::Mat, std::allocator<ncnn::Mat>>::_Vector_impl" = type { %"struct.std::_Vector_base<ncnn::Mat, std::allocator<ncnn::Mat>>::_Vector_impl_data" }
%"struct.std::_Vector_base<ncnn::Mat, std::allocator<ncnn::Mat>>::_Vector_impl_data" = type { ptr, ptr, ptr }
%"class.ncnn::Mat" = type { ptr, ptr, i64, i32, ptr, i32, i32, i32, i32, i32, i64 }
%"class.ncnn::Option" = type { i8, i32, ptr, ptr, i32, i8, i8, i8, i8, i8, i8, i8, i8, i8, i8, i8, i8, i8, i8, i8, i8, i8, i8, i8, i8, i32, i8, i8, i8, i8, i8, i8, i8, i8, i8, i8, i8, i8 }

@2 = private unnamed_addr constant %struct.ident_t { i32 0, i32 2, i32 0, i32 22, ptr @0 }, align 8

; Function Attrs: alwaysinline mustprogress nounwind uwtable
define linkonce_odr hidden noundef ptr @_ZNK4ncnn3MatcvPKT_IfEEv(ptr noundef nonnull align 8 dereferenceable(72) %0) #4 comdat align 2 {
  %2 = alloca ptr, align 8
  store ptr %0, ptr %2, align 8, !tbaa !13
  %3 = load ptr, ptr %2, align 8
  %4 = getelementptr inbounds nuw %"class.ncnn::Mat", ptr %3, i32 0, i32 0
  %5 = load ptr, ptr %4, align 8, !tbaa !32
  ret ptr %5
}

; Function Attrs: mustprogress uwtable
define hidden noundef i32 @_ZNK4ncnn15Bias_x86_avx51215forward_inplaceERNS_3MatERKNS_6OptionE(ptr noundef nonnull align 8 dereferenceable(288) %0, ptr noundef nonnull align 8 dereferenceable(72) %1, ptr noundef nonnull align 8 dereferenceable(64) %2) unnamed_addr #2 align 2 {
  %4 = alloca ptr, align 8
  %5 = alloca ptr, align 8
  %6 = alloca ptr, align 8
  %7 = alloca i32, align 4
  %8 = alloca i32, align 4
  %9 = alloca i32, align 4
  %10 = alloca i32, align 4
  %11 = alloca i32, align 4
  %12 = alloca ptr, align 8
  %13 = call i32 @__kmpc_global_thread_num(ptr @2)
  store ptr %0, ptr %4, align 8, !tbaa !11
  store ptr %1, ptr %5, align 8, !tbaa !13
  store ptr %2, ptr %6, align 8, !tbaa !15
  %14 = load ptr, ptr %4, align 8
  call void @llvm.lifetime.start.p0(i64 4, ptr %7) #6
  %15 = load ptr, ptr %5, align 8, !tbaa !13
  %16 = getelementptr inbounds nuw %"class.ncnn::Mat", ptr %15, i32 0, i32 6
  %17 = load i32, ptr %16, align 4, !tbaa !17
  store i32 %17, ptr %7, align 4, !tbaa !23
  call void @llvm.lifetime.start.p0(i64 4, ptr %8) #6
  %18 = load ptr, ptr %5, align 8, !tbaa !13
  %19 = getelementptr inbounds nuw %"class.ncnn::Mat", ptr %18, i32 0, i32 7
  %20 = load i32, ptr %19, align 8, !tbaa !24
  store i32 %20, ptr %8, align 4, !tbaa !23
  call void @llvm.lifetime.start.p0(i64 4, ptr %9) #6
  %21 = load ptr, ptr %5, align 8, !tbaa !13
  %22 = getelementptr inbounds nuw %"class.ncnn::Mat", ptr %21, i32 0, i32 8
  %23 = load i32, ptr %22, align 4, !tbaa !25
  store i32 %23, ptr %9, align 4, !tbaa !23
  call void @llvm.lifetime.start.p0(i64 4, ptr %10) #6
  %24 = load ptr, ptr %5, align 8, !tbaa !13
  %25 = getelementptr inbounds nuw %"class.ncnn::Mat", ptr %24, i32 0, i32 9
  %26 = load i32, ptr %25, align 8, !tbaa !26
  store i32 %26, ptr %10, align 4, !tbaa !23
  call void @llvm.lifetime.start.p0(i64 4, ptr %11) #6
  %27 = load i32, ptr %7, align 4, !tbaa !23
  %28 = load i32, ptr %8, align 4, !tbaa !23
  %29 = mul nsw i32 %27, %28
  %30 = load i32, ptr %9, align 4, !tbaa !23
  %31 = mul nsw i32 %29, %30
  store i32 %31, ptr %11, align 4, !tbaa !23
  call void @llvm.lifetime.start.p0(i64 8, ptr %12) #6
  %32 = getelementptr inbounds nuw %"class.ncnn::Bias", ptr %14, i32 0, i32 2
  %33 = call noundef ptr @_ZNK4ncnn3MatcvPKT_IfEEv(ptr noundef nonnull align 8 dereferenceable(72) %32)
  store ptr %33, ptr %12, align 8, !tbaa !27
  %34 = load ptr, ptr %6, align 8, !tbaa !15
  %35 = getelementptr inbounds nuw %"class.ncnn::Option", ptr %34, i32 0, i32 1
  %36 = load i32, ptr %35, align 4, !tbaa !29
  call void @__kmpc_push_num_threads(ptr @2, i32 %13, i32 %36)
  %37 = load ptr, ptr %5, align 8, !tbaa !13
  call void (ptr, i32, ptr, ...) @__kmpc_fork_call(ptr @2, i32 4, ptr @_ZNK4ncnn15Bias_x86_avx51215forward_inplaceERNS_3MatERKNS_6OptionE.omp_outlined, ptr %10, ptr %37, ptr %12, ptr %11)
  call void @llvm.lifetime.end.p0(i64 8, ptr %12) #6
  call void @llvm.lifetime.end.p0(i64 4, ptr %11) #6
  call void @llvm.lifetime.end.p0(i64 4, ptr %10) #6
  call void @llvm.lifetime.end.p0(i64 4, ptr %9) #6
  call void @llvm.lifetime.end.p0(i64 4, ptr %8) #6
  call void @llvm.lifetime.end.p0(i64 4, ptr %7) #6
  ret i32 0
}