; Function Attrs: mustprogress nounwind uwtable
define hidden noundef i32 @_ZNK4ncnn15Bias_x86_avx51215forward_inplaceERNS_3MatERKNS_6OptionE(ptr noundef nonnull readonly align 8 captures(none) dereferenceable(288) %0, ptr noundef nonnull align 8 dereferenceable(72) %1, ptr noundef nonnull readonly align 8 captures(none) dereferenceable(64) %2) unnamed_addr #2 align 2 {
  %4 = alloca i32, align 4
  %5 = alloca i32, align 4
  %6 = alloca ptr, align 8
  %7 = tail call i32 @__kmpc_global_thread_num(ptr nonnull @2)
  %8 = getelementptr inbounds nuw i8, ptr %1, i64 44
  %9 = load i32, ptr %8, align 4, !tbaa !18
  %10 = getelementptr inbounds nuw i8, ptr %1, i64 48
  %11 = load i32, ptr %10, align 8, !tbaa !19
  %12 = getelementptr inbounds nuw i8, ptr %1, i64 52
  %13 = load i32, ptr %12, align 4, !tbaa !20
  call void @llvm.lifetime.start.p0(i64 4, ptr nonnull %4) #5
  %14 = getelementptr inbounds nuw i8, ptr %1, i64 56
  %15 = load i32, ptr %14, align 8, !tbaa !21
  store i32 %15, ptr %4, align 4, !tbaa !22
  call void @llvm.lifetime.start.p0(i64 4, ptr nonnull %5) #5
  %16 = mul nsw i32 %11, %9
  %17 = mul nsw i32 %16, %13
  store i32 %17, ptr %5, align 4, !tbaa !22
  call void @llvm.lifetime.start.p0(i64 8, ptr nonnull %6) #5
  %18 = getelementptr inbounds nuw i8, ptr %0, i64 216
  %19 = load ptr, ptr %18, align 8, !tbaa !16
  store ptr %19, ptr %6, align 8, !tbaa !23
  %20 = getelementptr inbounds nuw i8, ptr %2, i64 4
  %21 = load i32, ptr %20, align 4, !tbaa !25
  tail call void @__kmpc_push_num_threads(ptr nonnull @2, i32 %7, i32 %21)
  call void (ptr, i32, ptr, ...) @__kmpc_fork_call(ptr nonnull @2, i32 4, ptr nonnull @_ZNK4ncnn15Bias_x86_avx51215forward_inplaceERNS_3MatERKNS_6OptionE.omp_outlined, ptr nonnull %4, ptr nonnull %1, ptr nonnull %6, ptr nonnull %5)
  call void @llvm.lifetime.end.p0(i64 8, ptr nonnull %6) #5
  call void @llvm.lifetime.end.p0(i64 4, ptr nonnull %5) #5
  call void @llvm.lifetime.end.p0(i64 4, ptr nonnull %4) #5
  ret i32 0
}